target datalayout = "e-m:e-p270:32:32-p271:32:32-p272:64:64-i64:64-i128:128-f80:128-n8:16:32:64-S128"
target triple = "x86_64-pc-linux-gnu"

%struct.stbtt_pack_context = type { ptr, ptr, i32, i32, i32, i32, i32, i32, i32, ptr, ptr }

; Function Attrs: nounwind uwtable
define void @stbtt_PackEnd(ptr noundef %0) #0 {
  %2 = alloca ptr, align 8
  store ptr %0, ptr %2, align 8, !tbaa !200
  %3 = load ptr, ptr %2, align 8, !tbaa !200
  %4 = getelementptr inbounds nuw %struct.stbtt_pack_context, ptr %3, i32 0, i32 10
  %5 = load ptr, ptr %4, align 8, !tbaa !208
  call void @free(ptr noundef %5) #8
  %6 = load ptr, ptr %2, align 8, !tbaa !200
  %7 = getelementptr inbounds nuw %struct.stbtt_pack_context, ptr %6, i32 0, i32 1
  %8 = load ptr, ptr %7, align 8, !tbaa !207
  call void @free(ptr noundef %8) #8
  ret void
}