; Function Attrs: mustprogress nounwind willreturn uwtable
define void @stbtt_PackEnd(ptr noundef readonly captures(none) %0) local_unnamed_addr #25 {
  %2 = getelementptr inbounds nuw i8, ptr %0, i64 56
  %3 = load ptr, ptr %2, align 8, !tbaa !183
  tail call void @free(ptr noundef %3) #32
  %4 = getelementptr inbounds nuw i8, ptr %0, i64 8
  %5 = load ptr, ptr %4, align 8, !tbaa !182
  tail call void @free(ptr noundef %5) #32
  ret void
}